target datalayout = "e-m:e-p270:32:32-p271:32:32-p272:64:64-i64:64-i128:128-f80:128-n8:16:32:64-S128"
target triple = "x86_64-pc-linux-gnu"

%"struct.pkpy::Str" = type { i32, i8, ptr, [16 x i8] }

; Function Attrs: mustprogress nounwind uwtable
define noundef i32 @_ZNK4pkpy3Str22_byte_index_to_unicodeEi(ptr noundef nonnull align 8 dereferenceable(32) %0, i32 noundef %1) #5 align 2 {
  %3 = alloca i32, align 4
  %4 = alloca ptr, align 8
  %5 = alloca i32, align 4
  %6 = alloca i32, align 4
  %7 = alloca i32, align 4
  store ptr %0, ptr %4, align 8
  store i32 %1, ptr %5, align 4
  %8 = load ptr, ptr %4, align 8
  %9 = getelementptr inbounds %"struct.pkpy::Str", ptr %8, i32 0, i32 1
  %10 = load i8, ptr %9, align 4
  %11 = trunc i8 %10 to i1
  br i1 %11, label %12, label %14

12:                                               ; preds = %2
  %13 = load i32, ptr %5, align 4
  store i32 %13, ptr %3, align 4
  br label %38

14:                                               ; preds = %2
  store i32 0, ptr %6, align 4
  store i32 0, ptr %7, align 4
  br label %15

15:                                               ; preds = %33, %14
  %16 = load i32, ptr %7, align 4
  %17 = load i32, ptr %5, align 4
  %18 = icmp slt i32 %16, %17
  br i1 %18, label %19, label %36

19:                                               ; preds = %15
  %20 = getelementptr inbounds %"struct.pkpy::Str", ptr %8, i32 0, i32 2
  %21 = load ptr, ptr %20, align 8
  %22 = load i32, ptr %7, align 4
  %23 = sext i32 %22 to i64
  %24 = getelementptr inbounds i8, ptr %21, i64 %23
  %25 = load i8, ptr %24, align 1
  %26 = sext i8 %25 to i32
  %27 = and i32 %26, 192
  %28 = icmp ne i32 %27, 128
  br i1 %28, label %29, label %32

29:                                               ; preds = %19
  %30 = load i32, ptr %6, align 4
  %31 = add nsw i32 %30, 1
  store i32 %31, ptr %6, align 4
  br label %32

32:                                               ; preds = %29, %19
  br label %33

33:                                               ; preds = %32
  %34 = load i32, ptr %7, align 4
  %35 = add nsw i32 %34, 1
  store i32 %35, ptr %7, align 4
  br label %15, !llvm.loop !23

36:                                               ; preds = %15
  %37 = load i32, ptr %6, align 4
  store i32 %37, ptr %3, align 4
  br label %38

38:                                               ; preds = %36, %12
  %39 = load i32, ptr %3, align 4
  ret i32 %39
}