; Function Attrs: mustprogress nofree norecurse nosync nounwind willreturn memory(read, inaccessiblemem: none) uwtable
define noundef i32 @_ZNK4pkpy3Str22_byte_index_to_unicodeEi(ptr nocapture noundef nonnull readonly align 8 dereferenceable(32) %0, i32 noundef %1) local_unnamed_addr #11 align 2 {
  %3 = getelementptr inbounds i8, ptr %0, i64 4
  %4 = load i8, ptr %3, align 4
  %5 = trunc i8 %4 to i1
  br i1 %5, label %.loopexit, label %.preheader

.preheader:                                       ; preds = %2
  %6 = icmp sgt i32 %1, 0
  br i1 %6, label %.lr.ph, label %.loopexit

.lr.ph:                                           ; preds = %.preheader
  %7 = getelementptr inbounds i8, ptr %0, i64 8
  %8 = load ptr, ptr %7, align 8
  %wide.trip.count = zext nneg i32 %1 to i64
  br label %9

9:                                                ; preds = %.lr.ph, %9
  %indvars.iv = phi i64 [ 0, %.lr.ph ], [ %indvars.iv.next, %9 ]
  %.0810 = phi i32 [ 0, %.lr.ph ], [ %spec.select, %9 ]
  %10 = getelementptr inbounds i8, ptr %8, i64 %indvars.iv
  %11 = load i8, ptr %10, align 1
  %12 = and i8 %11, -64
  %.not = icmp ne i8 %12, -128
  %13 = zext i1 %.not to i32
  %spec.select = add nuw nsw i32 %.0810, %13
  %indvars.iv.next = add nuw nsw i64 %indvars.iv, 1
  %exitcond.not = icmp eq i64 %indvars.iv.next, %wide.trip.count
  br i1 %exitcond.not, label %.loopexit, label %9, !llvm.loop !22

.loopexit:                                        ; preds = %9, %.preheader, %2
  %.09 = phi i32 [ %1, %2 ], [ 0, %.preheader ], [ %spec.select, %9 ]
  ret i32 %.09
}